; Function Attrs: mustprogress nofree norecurse nosync nounwind willreturn memory(argmem: readwrite) uwtable
define hidden void @png_set_read_user_transform_fn(ptr noalias nocapture noundef %0, ptr noundef %1) local_unnamed_addr #6 {
  %3 = getelementptr inbounds i8, ptr %0, i64 300
  %4 = load i32, ptr %3, align 4
  %5 = or i32 %4, 1048576
  store i32 %5, ptr %3, align 4
  %6 = getelementptr inbounds i8, ptr %0, i64 272
  store ptr %1, ptr %6, align 8
  ret void
}